target datalayout = "e-m:e-p270:32:32-p271:32:32-p272:64:64-i64:64-i128:128-f80:128-n8:16:32:64-S128"
target triple = "x86_64-pc-linux-gnu"

%struct.http_context_t = type { i32, ptr, ptr, ptr, ptr, ptr }

; Function Attrs: nounwind uwtable
define dso_local void @on_http_connection_finish(ptr noundef %0, ptr noundef %1) #0 {
  %3 = alloca ptr, align 8
  %4 = alloca ptr, align 8
  %5 = alloca ptr, align 8
  %6 = alloca i32, align 4
  store ptr %0, ptr %3, align 8
  store ptr %1, ptr %4, align 8
  call void @llvm.lifetime.start.p0(i64 8, ptr %5) #8
  %7 = load ptr, ptr %4, align 8
  store ptr %7, ptr %5, align 8
  %8 = load ptr, ptr %5, align 8
  %9 = icmp ne ptr %8, null
  br i1 %9, label %11, label %10

10:                                               ; preds = %2
  store i32 1, ptr %6, align 4
  br label %31

11:                                               ; preds = %2
  %12 = load ptr, ptr %5, align 8
  %13 = getelementptr inbounds nuw %struct.http_context_t, ptr %12, i32 0, i32 4
  call void @slurm_xfree(ptr noundef %13)
  %14 = load ptr, ptr %5, align 8
  %15 = getelementptr inbounds nuw %struct.http_context_t, ptr %14, i32 0, i32 5
  %16 = load ptr, ptr %15, align 8
  call void @_free_request_t(ptr noundef %16)
  br label %17

17:                                               ; preds = %11
  %18 = load ptr, ptr %5, align 8
  %19 = getelementptr inbounds nuw %struct.http_context_t, ptr %18, i32 0, i32 2
  %20 = load ptr, ptr %19, align 8
  %21 = icmp ne ptr %20, null
  br i1 %21, label %22, label %26

22:                                               ; preds = %17
  %23 = load ptr, ptr %5, align 8
  %24 = getelementptr inbounds nuw %struct.http_context_t, ptr %23, i32 0, i32 2
  %25 = load ptr, ptr %24, align 8
  call void @rest_auth_g_free(ptr noundef %25)
  br label %26

26:                                               ; preds = %22, %17
  %27 = load ptr, ptr %5, align 8
  %28 = getelementptr inbounds nuw %struct.http_context_t, ptr %27, i32 0, i32 2
  store ptr null, ptr %28, align 8
  br label %29

29:                                               ; preds = %26
  br label %30

30:                                               ; preds = %29
  call void @slurm_xfree(ptr noundef %5)
  store i32 0, ptr %6, align 4
  br label %31

31:                                               ; preds = %30, %10
  call void @llvm.lifetime.end.p0(i64 8, ptr %5) #8
  %32 = load i32, ptr %6, align 4
  switch i32 %32, label %34 [
    i32 0, label %33
    i32 1, label %33
  ]

33:                                               ; preds = %31, %31
  ret void

34:                                               ; preds = %31
  unreachable
}