; Function Attrs: nounwind uwtable
define dso_local void @on_http_connection_finish(ptr noundef readnone captures(none) %0, ptr noundef %1) local_unnamed_addr #0 {
  %3 = alloca ptr, align 8
  call void @llvm.lifetime.start.p0(i64 8, ptr nonnull %3) #8
  store ptr %1, ptr %3, align 8
  %.not = icmp eq ptr %1, null
  br i1 %.not, label %12, label %4

4:                                                ; preds = %2
  %5 = getelementptr inbounds nuw i8, ptr %1, i64 32
  tail call void @slurm_xfree(ptr noundef nonnull %5) #8
  %6 = getelementptr inbounds nuw i8, ptr %1, i64 40
  %7 = load ptr, ptr %6, align 8
  tail call fastcc void @_free_request_t(ptr noundef %7)
  %8 = getelementptr inbounds nuw i8, ptr %1, i64 16
  %9 = load ptr, ptr %8, align 8
  %.not2 = icmp eq ptr %9, null
  br i1 %.not2, label %11, label %10

10:                                               ; preds = %4
  tail call void @rest_auth_g_free(ptr noundef nonnull %9) #8
  br label %11

11:                                               ; preds = %10, %4
  store ptr null, ptr %8, align 8
  call void @slurm_xfree(ptr noundef nonnull %3) #8
  br label %12

12:                                               ; preds = %2, %11
  call void @llvm.lifetime.end.p0(i64 8, ptr nonnull %3) #8
  ret void
}